target datalayout = "e-m:e-p270:32:32-p271:32:32-p272:64:64-i64:64-i128:128-f80:128-n8:16:32:64-S128"
target triple = "x86_64-pc-linux-gnu"

%struct.hid_device_info = type { ptr, i16, i16, ptr, i16, ptr, ptr, i16, i16, i32, ptr, i32, i32, i32, i32 }
%struct.SDL_hid_device_info = type { ptr, i16, i16, ptr, i16, ptr, ptr, i16, i16, i32, i32, i32, i32, i32, ptr }

; Function Attrs: nounwind uwtable
define internal void @CopyHIDDeviceInfo(ptr noundef %0, ptr noundef %1) #0 {
  %3 = alloca ptr, align 8
  %4 = alloca ptr, align 8
  store ptr %0, ptr %3, align 8
  store ptr %1, ptr %4, align 8
  %5 = load ptr, ptr %3, align 8
  %6 = getelementptr inbounds nuw %struct.hid_device_info, ptr %5, i32 0, i32 0
  %7 = load ptr, ptr %6, align 8
  %8 = icmp ne ptr %7, null
  br i1 %8, label %9, label %16

9:                                                ; preds = %2
  %10 = load ptr, ptr %3, align 8
  %11 = getelementptr inbounds nuw %struct.hid_device_info, ptr %10, i32 0, i32 0
  %12 = load ptr, ptr %11, align 8
  %13 = call noalias ptr @SDL_strdup_REAL(ptr noundef %12)
  %14 = load ptr, ptr %4, align 8
  %15 = getelementptr inbounds nuw %struct.SDL_hid_device_info, ptr %14, i32 0, i32 0
  store ptr %13, ptr %15, align 8
  br label %19

16:                                               ; preds = %2
  %17 = load ptr, ptr %4, align 8
  %18 = getelementptr inbounds nuw %struct.SDL_hid_device_info, ptr %17, i32 0, i32 0
  store ptr null, ptr %18, align 8
  br label %19

19:                                               ; preds = %16, %9
  %20 = load ptr, ptr %3, align 8
  %21 = getelementptr inbounds nuw %struct.hid_device_info, ptr %20, i32 0, i32 1
  %22 = load i16, ptr %21, align 8
  %23 = load ptr, ptr %4, align 8
  %24 = getelementptr inbounds nuw %struct.SDL_hid_device_info, ptr %23, i32 0, i32 1
  store i16 %22, ptr %24, align 8
  %25 = load ptr, ptr %3, align 8
  %26 = getelementptr inbounds nuw %struct.hid_device_info, ptr %25, i32 0, i32 2
  %27 = load i16, ptr %26, align 2
  %28 = load ptr, ptr %4, align 8
  %29 = getelementptr inbounds nuw %struct.SDL_hid_device_info, ptr %28, i32 0, i32 2
  store i16 %27, ptr %29, align 2
  %30 = load ptr, ptr %3, align 8
  %31 = getelementptr inbounds nuw %struct.hid_device_info, ptr %30, i32 0, i32 3
  %32 = load ptr, ptr %31, align 8
  %33 = icmp ne ptr %32, null
  br i1 %33, label %34, label %41

34:                                               ; preds = %19
  %35 = load ptr, ptr %3, align 8
  %36 = getelementptr inbounds nuw %struct.hid_device_info, ptr %35, i32 0, i32 3
  %37 = load ptr, ptr %36, align 8
  %38 = call ptr @SDL_wcsdup_REAL(ptr noundef %37)
  %39 = load ptr, ptr %4, align 8
  %40 = getelementptr inbounds nuw %struct.SDL_hid_device_info, ptr %39, i32 0, i32 3
  store ptr %38, ptr %40, align 8
  br label %44

41:                                               ; preds = %19
  %42 = load ptr, ptr %4, align 8
  %43 = getelementptr inbounds nuw %struct.SDL_hid_device_info, ptr %42, i32 0, i32 3
  store ptr null, ptr %43, align 8
  br label %44

44:                                               ; preds = %41, %34
  %45 = load ptr, ptr %3, align 8
  %46 = getelementptr inbounds nuw %struct.hid_device_info, ptr %45, i32 0, i32 4
  %47 = load i16, ptr %46, align 8
  %48 = load ptr, ptr %4, align 8
  %49 = getelementptr inbounds nuw %struct.SDL_hid_device_info, ptr %48, i32 0, i32 4
  store i16 %47, ptr %49, align 8
  %50 = load ptr, ptr %3, align 8
  %51 = getelementptr inbounds nuw %struct.hid_device_info, ptr %50, i32 0, i32 5
  %52 = load ptr, ptr %51, align 8
  %53 = icmp ne ptr %52, null
  br i1 %53, label %54, label %61

54:                                               ; preds = %44
  %55 = load ptr, ptr %3, align 8
  %56 = getelementptr inbounds nuw %struct.hid_device_info, ptr %55, i32 0, i32 5
  %57 = load ptr, ptr %56, align 8
  %58 = call ptr @SDL_wcsdup_REAL(ptr noundef %57)
  %59 = load ptr, ptr %4, align 8
  %60 = getelementptr inbounds nuw %struct.SDL_hid_device_info, ptr %59, i32 0, i32 5
  store ptr %58, ptr %60, align 8
  br label %64

61:                                               ; preds = %44
  %62 = load ptr, ptr %4, align 8
  %63 = getelementptr inbounds nuw %struct.SDL_hid_device_info, ptr %62, i32 0, i32 5
  store ptr null, ptr %63, align 8
  br label %64

64:                                               ; preds = %61, %54
  %65 = load ptr, ptr %3, align 8
  %66 = getelementptr inbounds nuw %struct.hid_device_info, ptr %65, i32 0, i32 6
  %67 = load ptr, ptr %66, align 8
  %68 = icmp ne ptr %67, null
  br i1 %68, label %69, label %76

69:                                               ; preds = %64
  %70 = load ptr, ptr %3, align 8
  %71 = getelementptr inbounds nuw %struct.hid_device_info, ptr %70, i32 0, i32 6
  %72 = load ptr, ptr %71, align 8
  %73 = call ptr @SDL_wcsdup_REAL(ptr noundef %72)
  %74 = load ptr, ptr %4, align 8
  %75 = getelementptr inbounds nuw %struct.SDL_hid_device_info, ptr %74, i32 0, i32 6
  store ptr %73, ptr %75, align 8
  br label %79

76:                                               ; preds = %64
  %77 = load ptr, ptr %4, align 8
  %78 = getelementptr inbounds nuw %struct.SDL_hid_device_info, ptr %77, i32 0, i32 6
  store ptr null, ptr %78, align 8
  br label %79

79:                                               ; preds = %76, %69
  %80 = load ptr, ptr %3, align 8
  %81 = getelementptr inbounds nuw %struct.hid_device_info, ptr %80, i32 0, i32 7
  %82 = load i16, ptr %81, align 8
  %83 = load ptr, ptr %4, align 8
  %84 = getelementptr inbounds nuw %struct.SDL_hid_device_info, ptr %83, i32 0, i32 7
  store i16 %82, ptr %84, align 8
  %85 = load ptr, ptr %3, align 8
  %86 = getelementptr inbounds nuw %struct.hid_device_info, ptr %85, i32 0, i32 8
  %87 = load i16, ptr %86, align 2
  %88 = load ptr, ptr %4, align 8
  %89 = getelementptr inbounds nuw %struct.SDL_hid_device_info, ptr %88, i32 0, i32 8
  store i16 %87, ptr %89, align 2
  %90 = load ptr, ptr %3, align 8
  %91 = getelementptr inbounds nuw %struct.hid_device_info, ptr %90, i32 0, i32 9
  %92 = load i32, ptr %91, align 4
  %93 = load ptr, ptr %4, align 8
  %94 = getelementptr inbounds nuw %struct.SDL_hid_device_info, ptr %93, i32 0, i32 9
  store i32 %92, ptr %94, align 4
  %95 = load ptr, ptr %3, align 8
  %96 = getelementptr inbounds nuw %struct.hid_device_info, ptr %95, i32 0, i32 12
  %97 = load i32, ptr %96, align 4
  %98 = load ptr, ptr %4, align 8
  %99 = getelementptr inbounds nuw %struct.SDL_hid_device_info, ptr %98, i32 0, i32 10
  store i32 %97, ptr %99, align 8
  %100 = load ptr, ptr %3, align 8
  %101 = getelementptr inbounds nuw %struct.hid_device_info, ptr %100, i32 0, i32 13
  %102 = load i32, ptr %101, align 8
  %103 = load ptr, ptr %4, align 8
  %104 = getelementptr inbounds nuw %struct.SDL_hid_device_info, ptr %103, i32 0, i32 11
  store i32 %102, ptr %104, align 4
  %105 = load ptr, ptr %3, align 8
  %106 = getelementptr inbounds nuw %struct.hid_device_info, ptr %105, i32 0, i32 14
  %107 = load i32, ptr %106, align 4
  %108 = load ptr, ptr %4, align 8
  %109 = getelementptr inbounds nuw %struct.SDL_hid_device_info, ptr %108, i32 0, i32 12
  store i32 %107, ptr %109, align 8
  %110 = load ptr, ptr %3, align 8
  %111 = getelementptr inbounds nuw %struct.hid_device_info, ptr %110, i32 0, i32 11
  %112 = load i32, ptr %111, align 8
  %113 = load ptr, ptr %4, align 8
  %114 = getelementptr inbounds nuw %struct.SDL_hid_device_info, ptr %113, i32 0, i32 13
  store i32 %112, ptr %114, align 4
  %115 = load ptr, ptr %4, align 8
  %116 = getelementptr inbounds nuw %struct.SDL_hid_device_info, ptr %115, i32 0, i32 14
  store ptr null, ptr %116, align 8
  ret void
}