; Function Attrs: nounwind uwtable
define internal fastcc void @CopyHIDDeviceInfo(ptr noundef nonnull readonly captures(none) %0, ptr noundef writeonly captures(none) initializes((0, 12), (16, 26), (32, 80)) %1) unnamed_addr #1 {
  %3 = load ptr, ptr %0, align 8
  %.not = icmp eq ptr %3, null
  br i1 %.not, label %6, label %4

4:                                                ; preds = %2
  %5 = tail call noalias ptr @SDL_strdup_REAL(ptr noundef nonnull %3) #22
  br label %6

6:                                                ; preds = %2, %4
  %storemerge = phi ptr [ %5, %4 ], [ null, %2 ]
  store ptr %storemerge, ptr %1, align 8
  %7 = getelementptr inbounds nuw i8, ptr %0, i64 8
  %8 = load i16, ptr %7, align 8
  %9 = getelementptr inbounds nuw i8, ptr %1, i64 8
  store i16 %8, ptr %9, align 8
  %10 = getelementptr inbounds nuw i8, ptr %0, i64 10
  %11 = load i16, ptr %10, align 2
  %12 = getelementptr inbounds nuw i8, ptr %1, i64 10
  store i16 %11, ptr %12, align 2
  %13 = getelementptr inbounds nuw i8, ptr %0, i64 16
  %14 = load ptr, ptr %13, align 8
  %.not40 = icmp eq ptr %14, null
  br i1 %.not40, label %17, label %15

15:                                               ; preds = %6
  %16 = tail call ptr @SDL_wcsdup_REAL(ptr noundef nonnull %14) #22
  br label %17

17:                                               ; preds = %6, %15
  %.sink = phi ptr [ %16, %15 ], [ null, %6 ]
  %18 = getelementptr inbounds nuw i8, ptr %1, i64 16
  store ptr %.sink, ptr %18, align 8
  %19 = getelementptr inbounds nuw i8, ptr %0, i64 24
  %20 = load i16, ptr %19, align 8
  %21 = getelementptr inbounds nuw i8, ptr %1, i64 24
  store i16 %20, ptr %21, align 8
  %22 = getelementptr inbounds nuw i8, ptr %0, i64 32
  %23 = load ptr, ptr %22, align 8
  %.not41 = icmp eq ptr %23, null
  br i1 %.not41, label %26, label %24

24:                                               ; preds = %17
  %25 = tail call ptr @SDL_wcsdup_REAL(ptr noundef nonnull %23) #22
  br label %26

26:                                               ; preds = %17, %24
  %.sink43 = phi ptr [ %25, %24 ], [ null, %17 ]
  %27 = getelementptr inbounds nuw i8, ptr %1, i64 32
  store ptr %.sink43, ptr %27, align 8
  %28 = getelementptr inbounds nuw i8, ptr %0, i64 40
  %29 = load ptr, ptr %28, align 8
  %.not42 = icmp eq ptr %29, null
  br i1 %.not42, label %32, label %30

30:                                               ; preds = %26
  %31 = tail call ptr @SDL_wcsdup_REAL(ptr noundef nonnull %29) #22
  br label %32

32:                                               ; preds = %26, %30
  %.sink44 = phi ptr [ %31, %30 ], [ null, %26 ]
  %33 = getelementptr inbounds nuw i8, ptr %1, i64 40
  store ptr %.sink44, ptr %33, align 8
  %34 = getelementptr inbounds nuw i8, ptr %0, i64 48
  %35 = load i16, ptr %34, align 8
  %36 = getelementptr inbounds nuw i8, ptr %1, i64 48
  store i16 %35, ptr %36, align 8
  %37 = getelementptr inbounds nuw i8, ptr %0, i64 50
  %38 = load i16, ptr %37, align 2
  %39 = getelementptr inbounds nuw i8, ptr %1, i64 50
  store i16 %38, ptr %39, align 2
  %40 = getelementptr inbounds nuw i8, ptr %0, i64 52
  %41 = load i32, ptr %40, align 4
  %42 = getelementptr inbounds nuw i8, ptr %1, i64 52
  store i32 %41, ptr %42, align 4
  %43 = getelementptr inbounds nuw i8, ptr %0, i64 68
  %44 = load i32, ptr %43, align 4
  %45 = getelementptr inbounds nuw i8, ptr %1, i64 56
  store i32 %44, ptr %45, align 8
  %46 = getelementptr inbounds nuw i8, ptr %0, i64 72
  %47 = load i32, ptr %46, align 8
  %48 = getelementptr inbounds nuw i8, ptr %1, i64 60
  store i32 %47, ptr %48, align 4
  %49 = getelementptr inbounds nuw i8, ptr %0, i64 76
  %50 = load i32, ptr %49, align 4
  %51 = getelementptr inbounds nuw i8, ptr %1, i64 64
  store i32 %50, ptr %51, align 8
  %52 = getelementptr inbounds nuw i8, ptr %0, i64 64
  %53 = load i32, ptr %52, align 8
  %54 = getelementptr inbounds nuw i8, ptr %1, i64 68
  store i32 %53, ptr %54, align 4
  %55 = getelementptr inbounds nuw i8, ptr %1, i64 72
  store ptr null, ptr %55, align 8
  ret void
}